; Function Attrs: mustprogress uwtable
define void @ucal_set_75(ptr noundef %cal, i32 noundef %field, i32 noundef %value) local_unnamed_addr #1 {
entry:
  %or.cond = icmp ugt i32 %field, 23
  br i1 %or.cond, label %return, label %if.end

if.end:                                           ; preds = %entry
  tail call void @_ZN6icu_758Calendar3setE19UCalendarDateFieldsi(ptr noundef nonnull align 8 dereferenceable(618) %cal, i32 noundef %field, i32 noundef %value)
  br label %return

return:                                           ; preds = %entry, %if.end
  ret void
}